; ModuleID = '46/2618.c'
source_filename = "46/2618.c"
target datalayout = "e-m:e-p270:32:32-p271:32:32-p272:64:64-i64:64-f80:128-n8:16:32:64-S128"
target triple = "x86_64-pc-linux-gnu"

@.str = private unnamed_addr constant [5 x i8] c"%d%d\00", align 1
@.str.1 = private unnamed_addr constant [3 x i8] c"%d\00", align 1
@.str.2 = private unnamed_addr constant [4 x i8] c"%d\0A\00", align 1

; Function Attrs: noinline nounwind uwtable
define dso_local i32 @main() #0 {
  %1 = alloca i32, align 4
  %2 = alloca [100 x [100 x i32]], align 16
  %3 = alloca i32, align 4
  %4 = alloca i32, align 4
  %5 = alloca i32, align 4
  %6 = alloca i32, align 4
  %7 = alloca i32, align 4
  %8 = alloca i32, align 4
  %9 = alloca i32, align 4
  %10 = alloca i32, align 4
  store i32 0, i32* %1, align 4
  %11 = bitcast [100 x [100 x i32]]* %2 to i8*
  call void @llvm.memset.p0i8.i64(i8* align 16 %11, i8 0, i64 40000, i1 false)
  %12 = call i32 (i8*, ...) @__isoc99_scanf(i8* getelementptr inbounds ([5 x i8], [5 x i8]* @.str, i64 0, i64 0), i32* %5, i32* %6)
  store i32 0, i32* %3, align 4
  br label %13

13:                                               ; preds = %34, %0
  %14 = load i32, i32* %3, align 4
  %15 = load i32, i32* %5, align 4
  %16 = icmp slt i32 %14, %15
  br i1 %16, label %17, label %37

17:                                               ; preds = %13
  store i32 0, i32* %4, align 4
  br label %18

18:                                               ; preds = %30, %17
  %19 = load i32, i32* %4, align 4
  %20 = load i32, i32* %6, align 4
  %21 = icmp slt i32 %19, %20
  br i1 %21, label %22, label %33

22:                                               ; preds = %18
  %23 = load i32, i32* %3, align 4
  %24 = sext i32 %23 to i64
  %25 = getelementptr inbounds [100 x [100 x i32]], [100 x [100 x i32]]* %2, i64 0, i64 %24
  %26 = load i32, i32* %4, align 4
  %27 = sext i32 %26 to i64
  %28 = getelementptr inbounds [100 x i32], [100 x i32]* %25, i64 0, i64 %27
  %29 = call i32 (i8*, ...) @__isoc99_scanf(i8* getelementptr inbounds ([3 x i8], [3 x i8]* @.str.1, i64 0, i64 0), i32* %28)
  br label %30

30:                                               ; preds = %22
  %31 = load i32, i32* %4, align 4
  %32 = add nsw i32 %31, 1
  store i32 %32, i32* %4, align 4
  br label %18

33:                                               ; preds = %18
  br label %34

34:                                               ; preds = %33
  %35 = load i32, i32* %3, align 4
  %36 = add nsw i32 %35, 1
  store i32 %36, i32* %3, align 4
  br label %13

37:                                               ; preds = %13
  store i32 0, i32* %3, align 4
  store i32 0, i32* %4, align 4
  store i32 0, i32* %7, align 4
  store i32 0, i32* %8, align 4
  store i32 0, i32* %9, align 4
  store i32 0, i32* %10, align 4
  br label %38

38:                                               ; preds = %161, %37
  br label %39

39:                                               ; preds = %50, %38
  %40 = load i32, i32* %3, align 4
  %41 = sext i32 %40 to i64
  %42 = getelementptr inbounds [100 x [100 x i32]], [100 x [100 x i32]]* %2, i64 0, i64 %41
  %43 = load i32, i32* %4, align 4
  %44 = sext i32 %43 to i64
  %45 = getelementptr inbounds [100 x i32], [100 x i32]* %42, i64 0, i64 %44
  %46 = load i32, i32* %45, align 4
  %47 = call i32 (i8*, ...) @printf(i8* getelementptr inbounds ([4 x i8], [4 x i8]* @.str.2, i64 0, i64 0), i32 %46)
  %48 = load i32, i32* %4, align 4
  %49 = add nsw i32 %48, 1
  store i32 %49, i32* %4, align 4
  br label %50

50:                                               ; preds = %39
  %51 = load i32, i32* %4, align 4
  %52 = load i32, i32* %6, align 4
  %53 = load i32, i32* %7, align 4
  %54 = sub nsw i32 %52, %53
  %55 = icmp ne i32 %51, %54
  br i1 %55, label %39, label %56

56:                                               ; preds = %50
  %57 = load i32, i32* %4, align 4
  %58 = sub nsw i32 %57, 1
  store i32 %58, i32* %4, align 4
  %59 = load i32, i32* %7, align 4
  %60 = add nsw i32 %59, 1
  store i32 %60, i32* %7, align 4
  %61 = load i32, i32* %3, align 4
  %62 = add nsw i32 %61, 1
  store i32 %62, i32* %3, align 4
  %63 = load i32, i32* %10, align 4
  %64 = load i32, i32* %8, align 4
  %65 = add nsw i32 %63, %64
  %66 = add nsw i32 %65, 1
  %67 = load i32, i32* %5, align 4
  %68 = icmp eq i32 %66, %67
  br i1 %68, label %69, label %70

69:                                               ; preds = %56
  br label %162

70:                                               ; preds = %56
  br label %71

71:                                               ; preds = %82, %70
  %72 = load i32, i32* %3, align 4
  %73 = sext i32 %72 to i64
  %74 = getelementptr inbounds [100 x [100 x i32]], [100 x [100 x i32]]* %2, i64 0, i64 %73
  %75 = load i32, i32* %4, align 4
  %76 = sext i32 %75 to i64
  %77 = getelementptr inbounds [100 x i32], [100 x i32]* %74, i64 0, i64 %76
  %78 = load i32, i32* %77, align 4
  %79 = call i32 (i8*, ...) @printf(i8* getelementptr inbounds ([4 x i8], [4 x i8]* @.str.2, i64 0, i64 0), i32 %78)
  %80 = load i32, i32* %3, align 4
  %81 = add nsw i32 %80, 1
  store i32 %81, i32* %3, align 4
  br label %82

82:                                               ; preds = %71
  %83 = load i32, i32* %3, align 4
  %84 = load i32, i32* %5, align 4
  %85 = load i32, i32* %8, align 4
  %86 = sub nsw i32 %84, %85
  %87 = icmp ne i32 %83, %86
  br i1 %87, label %71, label %88

88:                                               ; preds = %82
  %89 = load i32, i32* %3, align 4
  %90 = sub nsw i32 %89, 1
  store i32 %90, i32* %3, align 4
  %91 = load i32, i32* %8, align 4
  %92 = add nsw i32 %91, 1
  store i32 %92, i32* %8, align 4
  %93 = load i32, i32* %4, align 4
  %94 = sub nsw i32 %93, 1
  store i32 %94, i32* %4, align 4
  %95 = load i32, i32* %9, align 4
  %96 = load i32, i32* %7, align 4
  %97 = add nsw i32 %95, %96
  %98 = load i32, i32* %6, align 4
  %99 = icmp eq i32 %97, %98
  br i1 %99, label %100, label %101

100:                                              ; preds = %88
  br label %162

101:                                              ; preds = %88
  br label %102

102:                                              ; preds = %113, %101
  %103 = load i32, i32* %3, align 4
  %104 = sext i32 %103 to i64
  %105 = getelementptr inbounds [100 x [100 x i32]], [100 x [100 x i32]]* %2, i64 0, i64 %104
  %106 = load i32, i32* %4, align 4
  %107 = sext i32 %106 to i64
  %108 = getelementptr inbounds [100 x i32], [100 x i32]* %105, i64 0, i64 %107
  %109 = load i32, i32* %108, align 4
  %110 = call i32 (i8*, ...) @printf(i8* getelementptr inbounds ([4 x i8], [4 x i8]* @.str.2, i64 0, i64 0), i32 %109)
  %111 = load i32, i32* %4, align 4
  %112 = sub nsw i32 %111, 1
  store i32 %112, i32* %4, align 4
  br label %113

113:                                              ; preds = %102
  %114 = load i32, i32* %4, align 4
  %115 = load i32, i32* %9, align 4
  %116 = sub nsw i32 %115, 1
  %117 = icmp ne i32 %114, %116
  br i1 %117, label %102, label %118

118:                                              ; preds = %113
  %119 = load i32, i32* %9, align 4
  %120 = add nsw i32 %119, 1
  store i32 %120, i32* %9, align 4
  %121 = load i32, i32* %4, align 4
  %122 = add nsw i32 %121, 1
  store i32 %122, i32* %4, align 4
  %123 = load i32, i32* %3, align 4
  %124 = sub nsw i32 %123, 1
  store i32 %124, i32* %3, align 4
  %125 = load i32, i32* %10, align 4
  %126 = load i32, i32* %8, align 4
  %127 = add nsw i32 %125, %126
  %128 = add nsw i32 %127, 1
  %129 = load i32, i32* %5, align 4
  %130 = icmp eq i32 %128, %129
  br i1 %130, label %131, label %132

131:                                              ; preds = %118
  br label %162

132:                                              ; preds = %118
  br label %133

133:                                              ; preds = %144, %132
  %134 = load i32, i32* %3, align 4
  %135 = sext i32 %134 to i64
  %136 = getelementptr inbounds [100 x [100 x i32]], [100 x [100 x i32]]* %2, i64 0, i64 %135
  %137 = load i32, i32* %4, align 4
  %138 = sext i32 %137 to i64
  %139 = getelementptr inbounds [100 x i32], [100 x i32]* %136, i64 0, i64 %138
  %140 = load i32, i32* %139, align 4
  %141 = call i32 (i8*, ...) @printf(i8* getelementptr inbounds ([4 x i8], [4 x i8]* @.str.2, i64 0, i64 0), i32 %140)
  %142 = load i32, i32* %3, align 4
  %143 = sub nsw i32 %142, 1
  store i32 %143, i32* %3, align 4
  br label %144

144:                                              ; preds = %133
  %145 = load i32, i32* %3, align 4
  %146 = load i32, i32* %10, align 4
  %147 = icmp ne i32 %145, %146
  br i1 %147, label %133, label %148

148:                                              ; preds = %144
  %149 = load i32, i32* %10, align 4
  %150 = add nsw i32 %149, 1
  store i32 %150, i32* %10, align 4
  %151 = load i32, i32* %3, align 4
  %152 = add nsw i32 %151, 1
  store i32 %152, i32* %3, align 4
  %153 = load i32, i32* %4, align 4
  %154 = add nsw i32 %153, 1
  store i32 %154, i32* %4, align 4
  %155 = load i32, i32* %9, align 4
  %156 = load i32, i32* %7, align 4
  %157 = add nsw i32 %155, %156
  %158 = load i32, i32* %6, align 4
  %159 = icmp eq i32 %157, %158
  br i1 %159, label %160, label %161

160:                                              ; preds = %148
  br label %162

161:                                              ; preds = %148
  br label %38

162:                                              ; preds = %160, %131, %100, %69
  ret i32 0
}

; Function Attrs: argmemonly nounwind willreturn
declare void @llvm.memset.p0i8.i64(i8* nocapture writeonly, i8, i64, i1 immarg) #1

declare dso_local i32 @__isoc99_scanf(i8*, ...) #2

declare dso_local i32 @printf(i8*, ...) #2


!llvm.module.flags = !{!0}
!llvm.ident = !{!1}

!0 = !{i32 1, !"wchar_size", i32 4}
!1 = !{!"clang version 10.0.0-4ubuntu1 "}
