; ModuleID = 'source-C-CXX/45/2618.c'
source_filename = "source-C-CXX/45/2618.c"
target datalayout = "e-m:e-p270:32:32-p271:32:32-p272:64:64-i64:64-f80:128-n8:16:32:64-S128"
target triple = "x86_64-pc-linux-gnu"

@.str = private unnamed_addr constant [5 x i8] c"%d%d\00", align 1
@.str.1 = private unnamed_addr constant [3 x i8] c"%d\00", align 1
@.str.2 = private unnamed_addr constant [4 x i8] c"%d\0A\00", align 1

; Function Attrs: nofree nounwind sspstrong uwtable
define dso_local i32 @main() local_unnamed_addr #0 {
  %1 = alloca [100 x [100 x i32]], align 16
  %2 = alloca i32, align 4
  %3 = alloca i32, align 4
  %4 = bitcast [100 x [100 x i32]]* %1 to i8*
  call void @llvm.lifetime.start.p0i8(i64 40000, i8* nonnull %4) #4
  call void @llvm.memset.p0i8.i64(i8* noundef nonnull align 16 dereferenceable(40000) %4, i8 0, i64 40000, i1 false)
  %5 = bitcast i32* %2 to i8*
  call void @llvm.lifetime.start.p0i8(i64 4, i8* nonnull %5) #4
  %6 = bitcast i32* %3 to i8*
  call void @llvm.lifetime.start.p0i8(i64 4, i8* nonnull %6) #4
  %7 = call i32 (i8*, ...) @__isoc99_scanf(i8* getelementptr inbounds ([5 x i8], [5 x i8]* @.str, i64 0, i64 0), i32* nonnull %2, i32* nonnull %3)
  %8 = load i32, i32* %2, align 4, !tbaa !5
  %9 = icmp sgt i32 %8, 0
  %10 = load i32, i32* %3, align 4
  %11 = icmp sgt i32 %10, 0
  %12 = select i1 %9, i1 %11, i1 false
  br i1 %12, label %13, label %34

13:                                               ; preds = %0, %28
  %14 = phi i32 [ %29, %28 ], [ %8, %0 ]
  %15 = phi i32 [ %30, %28 ], [ %10, %0 ]
  %16 = phi i64 [ %31, %28 ], [ 0, %0 ]
  %17 = icmp sgt i32 %15, 0
  br i1 %17, label %18, label %28

18:                                               ; preds = %13, %18
  %19 = phi i64 [ %22, %18 ], [ 0, %13 ]
  %20 = getelementptr inbounds [100 x [100 x i32]], [100 x [100 x i32]]* %1, i64 0, i64 %16, i64 %19
  %21 = call i32 (i8*, ...) @__isoc99_scanf(i8* getelementptr inbounds ([3 x i8], [3 x i8]* @.str.1, i64 0, i64 0), i32* nonnull %20)
  %22 = add nuw nsw i64 %19, 1
  %23 = load i32, i32* %3, align 4, !tbaa !5
  %24 = sext i32 %23 to i64
  %25 = icmp slt i64 %22, %24
  br i1 %25, label %18, label %26, !llvm.loop !9

26:                                               ; preds = %18
  %27 = load i32, i32* %2, align 4, !tbaa !5
  br label %28

28:                                               ; preds = %26, %13
  %29 = phi i32 [ %27, %26 ], [ %14, %13 ]
  %30 = phi i32 [ %23, %26 ], [ %15, %13 ]
  %31 = add nuw nsw i64 %16, 1
  %32 = sext i32 %29 to i64
  %33 = icmp slt i64 %31, %32
  br i1 %33, label %13, label %34, !llvm.loop !11

34:                                               ; preds = %28, %0
  br label %35

35:                                               ; preds = %34, %104
  %36 = phi i64 [ %88, %104 ], [ 0, %34 ]
  %37 = phi i32 [ %105, %104 ], [ 0, %34 ]
  %38 = phi i64 [ %81, %104 ], [ 0, %34 ]
  %39 = phi i32 [ %54, %104 ], [ 0, %34 ]
  %40 = sext i32 %37 to i64
  %41 = shl i64 %38, 32
  %42 = ashr exact i64 %41, 32
  br label %43

43:                                               ; preds = %43, %35
  %44 = phi i64 [ %48, %43 ], [ %42, %35 ]
  %45 = getelementptr inbounds [100 x [100 x i32]], [100 x [100 x i32]]* %1, i64 0, i64 %40, i64 %44
  %46 = load i32, i32* %45, align 4, !tbaa !5
  %47 = call i32 (i8*, ...) @printf(i8* nonnull dereferenceable(1) getelementptr inbounds ([4 x i8], [4 x i8]* @.str.2, i64 0, i64 0), i32 %46)
  %48 = add i64 %44, 1
  %49 = load i32, i32* %3, align 4, !tbaa !5
  %50 = sub nsw i32 %49, %39
  %51 = trunc i64 %48 to i32
  %52 = icmp eq i32 %50, %51
  br i1 %52, label %53, label %43, !llvm.loop !13

53:                                               ; preds = %43
  %54 = add nuw i32 %39, 1
  %55 = add nuw i32 %54, %39
  %56 = load i32, i32* %2, align 4, !tbaa !5
  %57 = icmp eq i32 %55, %56
  br i1 %57, label %108, label %58

58:                                               ; preds = %53
  %59 = add i32 %37, 1
  %60 = sext i32 %59 to i64
  br label %61

61:                                               ; preds = %58, %61
  %62 = phi i64 [ %60, %58 ], [ %66, %61 ]
  %63 = getelementptr inbounds [100 x [100 x i32]], [100 x [100 x i32]]* %1, i64 0, i64 %62, i64 %44
  %64 = load i32, i32* %63, align 4, !tbaa !5
  %65 = call i32 (i8*, ...) @printf(i8* nonnull dereferenceable(1) getelementptr inbounds ([4 x i8], [4 x i8]* @.str.2, i64 0, i64 0), i32 %64)
  %66 = add i64 %62, 1
  %67 = load i32, i32* %2, align 4, !tbaa !5
  %68 = sub nsw i32 %67, %39
  %69 = trunc i64 %66 to i32
  %70 = icmp eq i32 %68, %69
  br i1 %70, label %71, label %61, !llvm.loop !14

71:                                               ; preds = %61
  %72 = zext i32 %54 to i64
  %73 = add nuw nsw i64 %36, %72
  %74 = load i32, i32* %3, align 4, !tbaa !5
  %75 = zext i32 %74 to i64
  %76 = icmp eq i64 %73, %75
  br i1 %76, label %108, label %77

77:                                               ; preds = %71
  %78 = shl i64 %44, 32
  %79 = ashr exact i64 %78, 32
  br label %80

80:                                               ; preds = %77, %80
  %81 = phi i64 [ %79, %77 ], [ %82, %80 ]
  %82 = add nsw i64 %81, -1
  %83 = getelementptr inbounds [100 x [100 x i32]], [100 x [100 x i32]]* %1, i64 0, i64 %62, i64 %82
  %84 = load i32, i32* %83, align 4, !tbaa !5
  %85 = call i32 (i8*, ...) @printf(i8* nonnull dereferenceable(1) getelementptr inbounds ([4 x i8], [4 x i8]* @.str.2, i64 0, i64 0), i32 %84)
  %86 = icmp eq i64 %82, %36
  br i1 %86, label %87, label %80, !llvm.loop !15

87:                                               ; preds = %80
  %88 = add nuw i64 %36, 1
  %89 = shl i32 %54, 1
  %90 = load i32, i32* %2, align 4, !tbaa !5
  %91 = icmp eq i32 %89, %90
  br i1 %91, label %108, label %92

92:                                               ; preds = %87
  %93 = shl i64 %62, 32
  %94 = add i64 %93, -4294967296
  %95 = ashr exact i64 %94, 32
  br label %96

96:                                               ; preds = %92, %96
  %97 = phi i64 [ %95, %92 ], [ %101, %96 ]
  %98 = getelementptr inbounds [100 x [100 x i32]], [100 x [100 x i32]]* %1, i64 0, i64 %97, i64 %36
  %99 = load i32, i32* %98, align 4, !tbaa !5
  %100 = call i32 (i8*, ...) @printf(i8* nonnull dereferenceable(1) getelementptr inbounds ([4 x i8], [4 x i8]* @.str.2, i64 0, i64 0), i32 %99)
  %101 = add nsw i64 %97, -1
  %102 = trunc i64 %101 to i32
  %103 = icmp eq i32 %39, %102
  br i1 %103, label %104, label %96, !llvm.loop !16

104:                                              ; preds = %96
  %105 = trunc i64 %97 to i32
  %106 = load i32, i32* %3, align 4, !tbaa !5
  %107 = icmp eq i32 %89, %106
  br i1 %107, label %108, label %35

108:                                              ; preds = %104, %87, %71, %53
  call void @llvm.lifetime.end.p0i8(i64 4, i8* nonnull %6) #4
  call void @llvm.lifetime.end.p0i8(i64 4, i8* nonnull %5) #4
  call void @llvm.lifetime.end.p0i8(i64 40000, i8* nonnull %4) #4
  ret i32 0
}

; Function Attrs: argmemonly mustprogress nofree nosync nounwind willreturn
declare void @llvm.lifetime.start.p0i8(i64 immarg, i8* nocapture) #1

; Function Attrs: argmemonly mustprogress nofree nounwind willreturn writeonly
declare void @llvm.memset.p0i8.i64(i8* nocapture writeonly, i8, i64, i1 immarg) #2

; Function Attrs: nofree nounwind
declare noundef i32 @__isoc99_scanf(i8* nocapture noundef readonly, ...) local_unnamed_addr #3

; Function Attrs: nofree nounwind
declare noundef i32 @printf(i8* nocapture noundef readonly, ...) local_unnamed_addr #3

; Function Attrs: argmemonly mustprogress nofree nosync nounwind willreturn
declare void @llvm.lifetime.end.p0i8(i64 immarg, i8* nocapture) #1


!llvm.module.flags = !{!0, !1, !2, !3}
!llvm.ident = !{!4}

!0 = !{i32 1, !"wchar_size", i32 4}
!1 = !{i32 7, !"PIC Level", i32 2}
!2 = !{i32 7, !"PIE Level", i32 2}
!3 = !{i32 7, !"uwtable", i32 1}
!4 = !{!"clang version 13.0.0"}
!5 = !{!6, !6, i64 0}
!6 = !{!"int", !7, i64 0}
!7 = !{!"omnipotent char", !8, i64 0}
!8 = !{!"Simple C/C++ TBAA"}
!9 = distinct !{!9, !10}
!10 = !{!"llvm.loop.mustprogress"}
!11 = distinct !{!11, !10, !12}
!12 = !{!"llvm.loop.unswitch.partial.disable"}
!13 = distinct !{!13, !10}
!14 = distinct !{!14, !10}
!15 = distinct !{!15, !10}
!16 = distinct !{!16, !10}
